(lp0
((dp1
S'n_jobs'
p2
I16
sS'min_samples_leaf'
p3
I1
sS'n_estimators'
p4
I722
sS'random_state'
p5
I0
sS'max_features'
p6
F0.7402223212473804
sS'max_depth'
p7
I2
scnumpy.core.multiarray
scalar
p8
(cnumpy
dtype
p9
(S'f8'
p10
I0
I1
tp11
Rp12
(I3
S'<'
p13
NNNI-1
I-1
I0
tp14
bS'\xb7X\x99\x0c\xf5]S@'
p15
tp16
Rp17
tp18
a((dp19
g2
I16
sg3
I3
sg4
I755
sg5
I0
sg6
F0.5875470198460481
sg7
I3
sg8
(g12
S'HxS\xea\xc4qQ@'
p20
tp21
Rp22
tp23
a((dp24
g2
I16
sg3
I3
sg4
I439
sg5
I0
sg6
F0.5744763391667906
sg7
I4
sg8
(g12
S'\x99\x0c\x80p\x06UQ@'
p25
tp26
Rp27
tp28
a((dp29
g2
I16
sg3
I4
sg4
I673
sg5
I0
sg6
F0.08159816755517735
sg7
I9
sg8
(g12
S'\xe3{F\xbb\xa9\xdfQ@'
p30
tp31
Rp32
tp33
a((dp34
g2
I16
sg3
I6
sg4
I42
sg5
I0
sg6
F0.18541917648521633
sg7
I6
sg8
(g12
S'S\x7fZ\xe2x\x80Q@'
p35
tp36
Rp37
tp38
a((dp39
g2
I16
sg3
I3
sg4
I542
sg5
I0
sg6
F0.7474818358569026
sg7
I4
sg8
(g12
S'\x8b$\x00\xb1\x00cQ@'
p40
tp41
Rp42
tp43
a((dp44
g2
I16
sg3
I5
sg4
I787
sg5
I0
sg6
F0.9097510857354256
sg7
I5
sg8
(g12
S'/\xd1w@\x95hQ@'
p45
tp46
Rp47
tp48
a((dp49
g2
I16
sg3
I5
sg4
I783
sg5
I0
sg6
F0.49156588489057373
sg7
I2
sg8
(g12
S'\xee\xa05\xc4M\x0cS@'
p50
tp51
Rp52
tp53
a((dp54
g2
I16
sg3
I4
sg4
I876
sg5
I0
sg6
F0.4388079787642055
sg7
I5
sg8
(g12
S'\xd03\xbd\x1e3\\Q@'
p55
tp56
Rp57
tp58
a((dp59
g2
I16
sg3
I5
sg4
I380
sg5
I0
sg6
F0.323720170343497
sg7
I3
sg8
(g12
S'x=\x82t\xf5\xc7Q@'
p60
tp61
Rp62
tp63
a((dp64
g2
I16
sg3
I2
sg4
I818
sg5
I0
sg6
F0.2345881896503803
sg7
I8
sg8
(g12
S'\xcc\xb1\xa6\x82\x11\x91Q@'
p65
tp66
Rp67
tp68
a((dp69
g2
I16
sg3
I1
sg4
I646
sg5
I0
sg6
F0.10938874051970027
sg7
I3
sg8
(g12
S'1\xc0/\xb4\x0b\x1cT@'
p70
tp71
Rp72
tp73
a((dp74
g2
I16
sg3
I4
sg4
I7
sg5
I0
sg6
F0.8073001399679841
sg7
I1
sg8
(g12
S'[\xc8O\xde\xba\xddY@'
p75
tp76
Rp77
tp78
a((dp79
g2
I16
sg3
I1
sg4
I832
sg5
I0
sg6
F0.3267859353188942
sg7
I4
sg8
(g12
S'@\x12\xff\xce=ZQ@'
p80
tp81
Rp82
tp83
a((dp84
g2
I16
sg3
I2
sg4
I23
sg5
I0
sg6
F0.10300887509526946
sg7
I4
sg8
(g12
S'\xe5(\xc1D\xcc\xf5R@'
p85
tp86
Rp87
tp88
a((dp89
g2
I16
sg3
I3
sg4
I135
sg5
I0
sg6
F0.5252351819850521
sg7
I7
sg8
(g12
S'DM\xfc\xd3\xa2\x87Q@'
p90
tp91
Rp92
tp93
a((dp94
g2
I16
sg3
I6
sg4
I93
sg5
I0
sg6
F0.15933833194995362
sg7
I4
sg8
(g12
S'\xa2uNkbGR@'
p95
tp96
Rp97
tp98
a((dp99
g2
I16
sg3
I4
sg4
I230
sg5
I0
sg6
F0.5037975113598008
sg7
I1
sg8
(g12
S'6\x9d1\xf5r\x05Y@'
p100
tp101
Rp102
tp103
a((dp104
g2
I16
sg3
I6
sg4
I266
sg5
I0
sg6
F0.07295573769685137
sg7
I1
sg8
(g12
S'\x16g\x95\x9c\xd6\x90^@'
p105
tp106
Rp107
tp108
a((dp109
g2
I16
sg3
I2
sg4
I476
sg5
I0
sg6
F0.775777337479979
sg7
I1
sg8
(g12
S'\xfd\xa5n\xcb\xfaqY@'
p110
tp111
Rp112
tp113
a((dp114
g2
I16
sg3
I1
sg4
I210
sg5
I0
sg6
F0.2972066121012493
sg7
I3
sg8
(g12
S'K\x17=\xfe\xa3\xd1Q@'
p115
tp116
Rp117
tp118
a((dp119
g2
I16
sg3
I2
sg4
I603
sg5
I0
sg6
F0.48632913587737925
sg7
I6
sg8
(g12
S'\xce\x08\xa5\x02jnQ@'
p120
tp121
Rp122
tp123
a((dp124
g2
I16
sg3
I2
sg4
I345
sg5
I0
sg6
F0.7594889949096537
sg7
I7
sg8
(g12
S'\xb5t.o\xfe\xb5Q@'
p125
tp126
Rp127
tp128
a((dp129
g2
I16
sg3
I2
sg4
I605
sg5
I0
sg6
F0.8441383418686984
sg7
I9
sg8
(g12
S'm\xad\x08\xda\xf2\x01R@'
p130
tp131
Rp132
tp133
a((dp134
g2
I16
sg3
I2
sg4
I137
sg5
I0
sg6
F0.5503296398374032
sg7
I4
sg8
(g12
S'@\xc6\xfd\x14IVQ@'
p135
tp136
Rp137
tp138
a((dp139
g2
I16
sg3
I5
sg4
I280
sg5
I0
sg6
F0.6726063682234709
sg7
I7
sg8
(g12
S'\xfdE\xa5$\xe3\x87Q@'
p140
tp141
Rp142
tp143
a((dp144
g2
I16
sg3
I4
sg4
I899
sg5
I0
sg6
F0.1303105300554337
sg7
I1
sg8
(g12
S'\x14\x7f\x9a\xd0\x7f\xff[@'
p145
tp146
Rp147
tp148
a((dp149
g2
I16
sg3
I6
sg4
I896
sg5
I0
sg6
F0.7337533092666356
sg7
I2
sg8
(g12
S'\x91\x0b\x86\n\xcfXS@'
p150
tp151
Rp152
tp153
a((dp154
g2
I16
sg3
I6
sg4
I389
sg5
I0
sg6
F0.8093269054663663
sg7
I1
sg8
(g12
S'A\xc3\xf4\x19lvY@'
p155
tp156
Rp157
tp158
a((dp159
g2
I16
sg3
I1
sg4
I436
sg5
I0
sg6
F0.19225051574427898
sg7
I3
sg8
(g12
S'P\x85\xab\xfe3\x87R@'
p160
tp161
Rp162
tp163
a.